target datalayout = "e-m:e-p270:32:32-p271:32:32-p272:64:64-i64:64-i128:128-f80:128-n8:16:32:64-S128"
target triple = "x86_64-pc-linux-gnu"

%struct.H5_user_cb_state_t = type { %struct.H5E_user_cb_state_t }
%struct.H5E_user_cb_state_t = type { i32, %union.anon, ptr }
%union.anon = type { ptr }
%struct.H5P_genplist_t = type { ptr, i64, i64, i8, ptr, ptr }
%struct.H5P_genprop_t = type { ptr, i64, ptr, i32, i8, ptr, ptr, ptr, ptr, ptr, ptr, ptr, ptr, ptr }

@H5P_init_g = external global i8, align 1
@H5_libterm_g = external global i8, align 1
@.str.7 = private unnamed_addr constant [100 x i8] c"generated/home/dtcxzyw/WorkSpace/Projects/compilers/llvm-opt-benchmark/bench/hdf5/hdf5/src/H5Pint.c\00", align 1
@H5E_CANTINIT_g = external global i64, align 8
@H5E_PLIST_g = external global i64, align 8
@H5E_CANTSET_g = external global i64, align 8
@H5E_CANTINSERT_g = external global i64, align 8
@.str.20 = private unnamed_addr constant [25 x i8] c"memory allocation failed\00", align 1
@.str.24 = private unnamed_addr constant [45 x i8] c"can't insert property into deleted skip list\00", align 1
@H5E_LIB_g = external global i64, align 8
@.str.26 = private unnamed_addr constant [37 x i8] c"preparation for user callback failed\00", align 1
@H5E_CANTRESTORE_g = external global i64, align 8
@H5E_CANTALLOC_g = external global i64, align 8
@.str.68 = private unnamed_addr constant [54 x i8] c"memory allocation failed for temporary property value\00", align 1
@__func__.H5P__del_pclass_cb = private unnamed_addr constant [19 x i8] c"H5P__del_pclass_cb\00", align 1
@.str.97 = private unnamed_addr constant [27 x i8] c"can't close property value\00", align 1

; Function Attrs: nounwind uwtable
define internal i32 @H5P__del_pclass_cb(ptr noundef %0, ptr noundef %1, ptr noundef %2, ptr noundef %3) #0 {
  %5 = alloca i32, align 4
  %6 = alloca ptr, align 8
  %7 = alloca ptr, align 8
  %8 = alloca ptr, align 8
  %9 = alloca ptr, align 8
  %10 = alloca ptr, align 8
  %11 = alloca ptr, align 8
  %12 = alloca i32, align 4
  %13 = alloca i8, align 1
  %14 = alloca %struct.H5_user_cb_state_t, align 8
  %15 = alloca i32, align 4
  store ptr %0, ptr %6, align 8, !tbaa !59
  store ptr %1, ptr %7, align 8, !tbaa !39
  store ptr %2, ptr %8, align 8, !tbaa !68
  store ptr %3, ptr %9, align 8, !tbaa !40
  call void @llvm.lifetime.start.p0(i64 8, ptr %10) #8
  store ptr null, ptr %10, align 8, !tbaa !39
  call void @llvm.lifetime.start.p0(i64 8, ptr %11) #8
  store ptr null, ptr %11, align 8, !tbaa !40
  call void @llvm.lifetime.start.p0(i64 4, ptr %12) #8
  store i32 0, ptr %12, align 4, !tbaa !3
  call void @llvm.lifetime.start.p0(i64 1, ptr %13) #8
  store i8 0, ptr %13, align 1, !tbaa !7
  %16 = load i8, ptr @H5P_init_g, align 1, !tbaa !7, !range !9, !noundef !10
  %17 = trunc i8 %16 to i1
  br i1 %17, label %22, label %18

18:                                               ; preds = %4
  %19 = load i8, ptr @H5_libterm_g, align 1, !tbaa !7, !range !9, !noundef !10
  %20 = trunc i8 %19 to i1
  %21 = xor i1 %20, true
  br label %22

22:                                               ; preds = %18, %4
  %23 = phi i1 [ true, %4 ], [ %21, %18 ]
  %24 = xor i1 %23, true
  %25 = xor i1 %24, true
  %26 = zext i1 %25 to i32
  %27 = sext i32 %26 to i64
  %28 = call i64 @llvm.expect.i64(i64 %27, i64 1)
  %29 = icmp ne i64 %28, 0
  br i1 %29, label %30, label %221

30:                                               ; preds = %22
  %31 = load ptr, ptr %8, align 8, !tbaa !68
  %32 = getelementptr inbounds nuw %struct.H5P_genprop_t, ptr %31, i32 0, i32 10
  %33 = load ptr, ptr %32, align 8, !tbaa !100
  %34 = icmp ne ptr null, %33
  br i1 %34, label %35, label %149

35:                                               ; preds = %30
  %36 = load ptr, ptr %8, align 8, !tbaa !68
  %37 = getelementptr inbounds nuw %struct.H5P_genprop_t, ptr %36, i32 0, i32 1
  %38 = load i64, ptr %37, align 8, !tbaa !76
  %39 = call noalias ptr @malloc(i64 noundef %38) #9
  store ptr %39, ptr %11, align 8, !tbaa !40
  %40 = icmp eq ptr null, %39
  br i1 %40, label %41, label %60

41:                                               ; preds = %35
  br label %42

42:                                               ; preds = %41
  br label %43

43:                                               ; preds = %42
  br label %44

44:                                               ; preds = %43
  %45 = load i64, ptr @H5E_PLIST_g, align 8, !tbaa !11
  %46 = load i64, ptr @H5E_CANTALLOC_g, align 8, !tbaa !11
  %47 = call i32 (ptr, ptr, i32, i64, i64, ptr, ...) @H5E_printf_stack(ptr noundef @.str.7, ptr noundef @__func__.H5P__del_pclass_cb, i32 noundef 4918, i64 noundef %45, i64 noundef %46, ptr noundef @.str.68)
  br label %48

48:                                               ; preds = %44
  br label %49

49:                                               ; preds = %48
  store i8 1, ptr %13, align 1, !tbaa !7
  %50 = load i8, ptr %13, align 1, !tbaa !7, !range !9, !noundef !10
  %51 = trunc i8 %50 to i1
  %52 = zext i1 %51 to i8
  store i8 %52, ptr %13, align 1, !tbaa !7
  br label %53

53:                                               ; preds = %49
  br label %54

54:                                               ; preds = %53
  br label %55

55:                                               ; preds = %54
  store i32 -1, ptr %12, align 4, !tbaa !3
  br label %204

56:                                               ; No predecessors!
  br label %57

57:                                               ; preds = %56
  br label %58

58:                                               ; preds = %57
  br label %59

59:                                               ; preds = %58
  br label %60

60:                                               ; preds = %59, %35
  %61 = load ptr, ptr %11, align 8, !tbaa !40
  %62 = load ptr, ptr %8, align 8, !tbaa !68
  %63 = getelementptr inbounds nuw %struct.H5P_genprop_t, ptr %62, i32 0, i32 2
  %64 = load ptr, ptr %63, align 8, !tbaa !75
  %65 = load ptr, ptr %8, align 8, !tbaa !68
  %66 = getelementptr inbounds nuw %struct.H5P_genprop_t, ptr %65, i32 0, i32 1
  %67 = load i64, ptr %66, align 8, !tbaa !76
  call void @llvm.memcpy.p0.p0.i64(ptr align 1 %61, ptr align 1 %64, i64 %67, i1 false)
  call void @llvm.lifetime.start.p0(i64 24, ptr %14) #8
  %68 = call i32 @H5_user_cb_prepare(ptr noundef %14)
  %69 = icmp slt i32 %68, 0
  br i1 %69, label %70, label %89

70:                                               ; preds = %60
  br label %71

71:                                               ; preds = %70
  br label %72

72:                                               ; preds = %71
  br label %73

73:                                               ; preds = %72
  %74 = load i64, ptr @H5E_LIB_g, align 8, !tbaa !11
  %75 = load i64, ptr @H5E_CANTSET_g, align 8, !tbaa !11
  %76 = call i32 (ptr, ptr, i32, i64, i64, ptr, ...) @H5E_printf_stack(ptr noundef @.str.7, ptr noundef @__func__.H5P__del_pclass_cb, i32 noundef 4922, i64 noundef %74, i64 noundef %75, ptr noundef @.str.26)
  br label %77

77:                                               ; preds = %73
  br label %78

78:                                               ; preds = %77
  store i8 1, ptr %13, align 1, !tbaa !7
  %79 = load i8, ptr %13, align 1, !tbaa !7, !range !9, !noundef !10
  %80 = trunc i8 %79 to i1
  %81 = zext i1 %80 to i8
  store i8 %81, ptr %13, align 1, !tbaa !7
  br label %82

82:                                               ; preds = %78
  br label %83

83:                                               ; preds = %82
  br label %84

84:                                               ; preds = %83
  store i32 -1, ptr %12, align 4, !tbaa !3
  store i32 10, ptr %15, align 4
  br label %124

85:                                               ; No predecessors!
  br label %86

86:                                               ; preds = %85
  br label %87

87:                                               ; preds = %86
  br label %88

88:                                               ; preds = %87
  br label %89

89:                                               ; preds = %88, %60
  %90 = load ptr, ptr %8, align 8, !tbaa !68
  %91 = getelementptr inbounds nuw %struct.H5P_genprop_t, ptr %90, i32 0, i32 10
  %92 = load ptr, ptr %91, align 8, !tbaa !100
  %93 = load ptr, ptr %6, align 8, !tbaa !59
  %94 = getelementptr inbounds nuw %struct.H5P_genplist_t, ptr %93, i32 0, i32 1
  %95 = load i64, ptr %94, align 8, !tbaa !61
  %96 = load ptr, ptr %7, align 8, !tbaa !39
  %97 = load ptr, ptr %8, align 8, !tbaa !68
  %98 = getelementptr inbounds nuw %struct.H5P_genprop_t, ptr %97, i32 0, i32 1
  %99 = load i64, ptr %98, align 8, !tbaa !76
  %100 = load ptr, ptr %11, align 8, !tbaa !40
  %101 = call i32 %92(i64 noundef %95, ptr noundef %96, i64 noundef %99, ptr noundef %100)
  store i32 %101, ptr %12, align 4, !tbaa !3
  %102 = call i32 @H5_user_cb_restore(ptr noundef %14)
  %103 = icmp slt i32 %102, 0
  br i1 %103, label %104, label %123

104:                                              ; preds = %89
  br label %105

105:                                              ; preds = %104
  br label %106

106:                                              ; preds = %105
  br label %107

107:                                              ; preds = %106
  %108 = load i64, ptr @H5E_LIB_g, align 8, !tbaa !11
  %109 = load i64, ptr @H5E_CANTRESTORE_g, align 8, !tbaa !11
  %110 = call i32 (ptr, ptr, i32, i64, i64, ptr, ...) @H5E_printf_stack(ptr noundef @.str.7, ptr noundef @__func__.H5P__del_pclass_cb, i32 noundef 4927, i64 noundef %108, i64 noundef %109, ptr noundef @.str.26)
  br label %111

111:                                              ; preds = %107
  br label %112

112:                                              ; preds = %111
  store i8 1, ptr %13, align 1, !tbaa !7
  %113 = load i8, ptr %13, align 1, !tbaa !7, !range !9, !noundef !10
  %114 = trunc i8 %113 to i1
  %115 = zext i1 %114 to i8
  store i8 %115, ptr %13, align 1, !tbaa !7
  br label %116

116:                                              ; preds = %112
  br label %117

117:                                              ; preds = %116
  br label %118

118:                                              ; preds = %117
  store i32 -1, ptr %12, align 4, !tbaa !3
  store i32 10, ptr %15, align 4
  br label %124

119:                                              ; No predecessors!
  br label %120

120:                                              ; preds = %119
  br label %121

121:                                              ; preds = %120
  br label %122

122:                                              ; preds = %121
  br label %123

123:                                              ; preds = %122, %89
  store i32 0, ptr %15, align 4
  br label %124

124:                                              ; preds = %118, %84, %123
  call void @llvm.lifetime.end.p0(i64 24, ptr %14) #8
  %125 = load i32, ptr %15, align 4
  switch i32 %125, label %223 [
    i32 0, label %126
    i32 10, label %204
  ]

126:                                              ; preds = %124
  %127 = load i32, ptr %12, align 4, !tbaa !3
  %128 = icmp slt i32 %127, 0
  br i1 %128, label %129, label %148

129:                                              ; preds = %126
  br label %130

130:                                              ; preds = %129
  br label %131

131:                                              ; preds = %130
  br label %132

132:                                              ; preds = %131
  %133 = load i64, ptr @H5E_PLIST_g, align 8, !tbaa !11
  %134 = load i64, ptr @H5E_CANTINIT_g, align 8, !tbaa !11
  %135 = call i32 (ptr, ptr, i32, i64, i64, ptr, ...) @H5E_printf_stack(ptr noundef @.str.7, ptr noundef @__func__.H5P__del_pclass_cb, i32 noundef 4929, i64 noundef %133, i64 noundef %134, ptr noundef @.str.97)
  br label %136

136:                                              ; preds = %132
  br label %137

137:                                              ; preds = %136
  store i8 1, ptr %13, align 1, !tbaa !7
  %138 = load i8, ptr %13, align 1, !tbaa !7, !range !9, !noundef !10
  %139 = trunc i8 %138 to i1
  %140 = zext i1 %139 to i8
  store i8 %140, ptr %13, align 1, !tbaa !7
  br label %141

141:                                              ; preds = %137
  br label %142

142:                                              ; preds = %141
  br label %143

143:                                              ; preds = %142
  store i32 -1, ptr %12, align 4, !tbaa !3
  br label %204

144:                                              ; No predecessors!
  br label %145

145:                                              ; preds = %144
  br label %146

146:                                              ; preds = %145
  br label %147

147:                                              ; preds = %146
  br label %148

148:                                              ; preds = %147, %126
  br label %149

149:                                              ; preds = %148, %30
  %150 = load ptr, ptr %7, align 8, !tbaa !39
  %151 = call noalias ptr @H5MM_xstrdup(ptr noundef %150)
  store ptr %151, ptr %10, align 8, !tbaa !39
  %152 = icmp eq ptr null, %151
  br i1 %152, label %153, label %172

153:                                              ; preds = %149
  br label %154

154:                                              ; preds = %153
  br label %155

155:                                              ; preds = %154
  br label %156

156:                                              ; preds = %155
  %157 = load i64, ptr @H5E_PLIST_g, align 8, !tbaa !11
  %158 = load i64, ptr @H5E_CANTALLOC_g, align 8, !tbaa !11
  %159 = call i32 (ptr, ptr, i32, i64, i64, ptr, ...) @H5E_printf_stack(ptr noundef @.str.7, ptr noundef @__func__.H5P__del_pclass_cb, i32 noundef 4934, i64 noundef %157, i64 noundef %158, ptr noundef @.str.20)
  br label %160

160:                                              ; preds = %156
  br label %161

161:                                              ; preds = %160
  store i8 1, ptr %13, align 1, !tbaa !7
  %162 = load i8, ptr %13, align 1, !tbaa !7, !range !9, !noundef !10
  %163 = trunc i8 %162 to i1
  %164 = zext i1 %163 to i8
  store i8 %164, ptr %13, align 1, !tbaa !7
  br label %165

165:                                              ; preds = %161
  br label %166

166:                                              ; preds = %165
  br label %167

167:                                              ; preds = %166
  store i32 -1, ptr %12, align 4, !tbaa !3
  br label %204

168:                                              ; No predecessors!
  br label %169

169:                                              ; preds = %168
  br label %170

170:                                              ; preds = %169
  br label %171

171:                                              ; preds = %170
  br label %172

172:                                              ; preds = %171, %149
  %173 = load ptr, ptr %6, align 8, !tbaa !59
  %174 = getelementptr inbounds nuw %struct.H5P_genplist_t, ptr %173, i32 0, i32 4
  %175 = load ptr, ptr %174, align 8, !tbaa !80
  %176 = load ptr, ptr %10, align 8, !tbaa !39
  %177 = load ptr, ptr %10, align 8, !tbaa !39
  %178 = call i32 @H5SL_insert(ptr noundef %175, ptr noundef %176, ptr noundef %177)
  %179 = icmp slt i32 %178, 0
  br i1 %179, label %180, label %199

180:                                              ; preds = %172
  br label %181

181:                                              ; preds = %180
  br label %182

182:                                              ; preds = %181
  br label %183

183:                                              ; preds = %182
  %184 = load i64, ptr @H5E_PLIST_g, align 8, !tbaa !11
  %185 = load i64, ptr @H5E_CANTINSERT_g, align 8, !tbaa !11
  %186 = call i32 (ptr, ptr, i32, i64, i64, ptr, ...) @H5E_printf_stack(ptr noundef @.str.7, ptr noundef @__func__.H5P__del_pclass_cb, i32 noundef 4938, i64 noundef %184, i64 noundef %185, ptr noundef @.str.24)
  br label %187

187:                                              ; preds = %183
  br label %188

188:                                              ; preds = %187
  store i8 1, ptr %13, align 1, !tbaa !7
  %189 = load i8, ptr %13, align 1, !tbaa !7, !range !9, !noundef !10
  %190 = trunc i8 %189 to i1
  %191 = zext i1 %190 to i8
  store i8 %191, ptr %13, align 1, !tbaa !7
  br label %192

192:                                              ; preds = %188
  br label %193

193:                                              ; preds = %192
  br label %194

194:                                              ; preds = %193
  store i32 -1, ptr %12, align 4, !tbaa !3
  br label %204

195:                                              ; No predecessors!
  br label %196

196:                                              ; preds = %195
  br label %197

197:                                              ; preds = %196
  br label %198

198:                                              ; preds = %197
  br label %199

199:                                              ; preds = %198, %172
  %200 = load ptr, ptr %6, align 8, !tbaa !59
  %201 = getelementptr inbounds nuw %struct.H5P_genplist_t, ptr %200, i32 0, i32 2
  %202 = load i64, ptr %201, align 8, !tbaa !78
  %203 = add i64 %202, -1
  store i64 %203, ptr %201, align 8, !tbaa !78
  br label %204

204:                                              ; preds = %199, %124, %194, %167, %143, %55
  %205 = load ptr, ptr %11, align 8, !tbaa !40
  %206 = icmp ne ptr %205, null
  br i1 %206, label %207, label %210

207:                                              ; preds = %204
  %208 = load ptr, ptr %11, align 8, !tbaa !40
  %209 = call ptr @H5MM_xfree(ptr noundef %208)
  br label %210

210:                                              ; preds = %207, %204
  %211 = load i32, ptr %12, align 4, !tbaa !3
  %212 = icmp slt i32 %211, 0
  br i1 %212, label %213, label %220

213:                                              ; preds = %210
  %214 = load ptr, ptr %10, align 8, !tbaa !39
  %215 = icmp ne ptr %214, null
  br i1 %215, label %216, label %219

216:                                              ; preds = %213
  %217 = load ptr, ptr %10, align 8, !tbaa !39
  %218 = call ptr @H5MM_xfree(ptr noundef %217)
  br label %219

219:                                              ; preds = %216, %213
  br label %220

220:                                              ; preds = %219, %210
  br label %221

221:                                              ; preds = %220, %22
  %222 = load i32, ptr %12, align 4, !tbaa !3
  store i32 %222, ptr %5, align 4
  store i32 1, ptr %15, align 4
  br label %223

223:                                              ; preds = %221, %124
  call void @llvm.lifetime.end.p0(i64 1, ptr %13) #8
  call void @llvm.lifetime.end.p0(i64 4, ptr %12) #8
  call void @llvm.lifetime.end.p0(i64 8, ptr %11) #8
  call void @llvm.lifetime.end.p0(i64 8, ptr %10) #8
  %224 = load i32, ptr %5, align 4
  ret i32 %224
}