; Function Attrs: nounwind uwtable
define internal range(i32 -1, -2147483648) i32 @H5P__del_pclass_cb(ptr noundef captures(none) %0, ptr noundef %1, ptr noundef readonly captures(none) %2, ptr readnone captures(none) %3) #0 {
  %5 = alloca %struct.H5_user_cb_state_t, align 8
  %6 = load i8, ptr @H5P_init_g, align 1, !tbaa !3, !range !7, !noundef !8
  %7 = trunc nuw i8 %6 to i1
  %8 = load i8, ptr @H5_libterm_g, align 1, !range !7
  %9 = trunc nuw i8 %8 to i1
  %10 = xor i1 %9, true
  %11 = select i1 %7, i1 true, i1 %10
  br i1 %11, label %12, label %72, !prof !9

12:                                               ; preds = %4
  %13 = getelementptr inbounds nuw i8, ptr %2, i64 72
  %14 = load ptr, ptr %13, align 8, !tbaa !91
  %.not = icmp eq ptr %14, null
  br i1 %.not, label %45, label %15

15:                                               ; preds = %12
  %16 = getelementptr inbounds nuw i8, ptr %2, i64 8
  %17 = load i64, ptr %16, align 8, !tbaa !73
  %18 = tail call noalias ptr @malloc(i64 noundef %17) #15
  %19 = icmp eq ptr %18, null
  br i1 %19, label %.thread58, label %23

.thread58:                                        ; preds = %15
  %20 = load i64, ptr @H5E_PLIST_g, align 8, !tbaa !10
  %21 = load i64, ptr @H5E_CANTALLOC_g, align 8, !tbaa !10
  %22 = tail call i32 (ptr, ptr, i32, i64, i64, ptr, ...) @H5E_printf_stack(ptr noundef nonnull @.str.7, ptr noundef nonnull @__func__.H5P__del_pclass_cb, i32 noundef 4918, i64 noundef %20, i64 noundef %21, ptr noundef nonnull @.str.68) #14
  br label %72

23:                                               ; preds = %15
  %24 = getelementptr inbounds nuw i8, ptr %2, i64 16
  %25 = load ptr, ptr %24, align 8, !tbaa !72
  tail call void @llvm.memcpy.p0.p0.i64(ptr nonnull align 1 %18, ptr align 1 %25, i64 %17, i1 false)
  call void @llvm.lifetime.start.p0(i64 24, ptr nonnull %5) #14
  %26 = call i32 @H5_user_cb_prepare(ptr noundef nonnull %5) #14
  %27 = icmp slt i32 %26, 0
  br i1 %27, label %.thread, label %28

28:                                               ; preds = %23
  %29 = load ptr, ptr %13, align 8, !tbaa !91
  %30 = getelementptr inbounds nuw i8, ptr %0, i64 8
  %31 = load i64, ptr %30, align 8, !tbaa !66
  %32 = load i64, ptr %16, align 8, !tbaa !73
  %33 = call i32 %29(i64 noundef %31, ptr noundef %1, i64 noundef %32, ptr noundef nonnull %18) #14
  %34 = call i32 @H5_user_cb_restore(ptr noundef nonnull %5) #14
  %35 = icmp slt i32 %34, 0
  br i1 %35, label %.thread, label %39

.thread:                                          ; preds = %28, %23
  %H5E_CANTSET_g.sink = phi ptr [ @H5E_CANTSET_g, %23 ], [ @H5E_CANTRESTORE_g, %28 ]
  %.sink = phi i32 [ 4922, %23 ], [ 4927, %28 ]
  %36 = load i64, ptr @H5E_LIB_g, align 8, !tbaa !10
  %37 = load i64, ptr %H5E_CANTSET_g.sink, align 8, !tbaa !10
  %38 = call i32 (ptr, ptr, i32, i64, i64, ptr, ...) @H5E_printf_stack(ptr noundef nonnull @.str.7, ptr noundef nonnull @__func__.H5P__del_pclass_cb, i32 noundef %.sink, i64 noundef %36, i64 noundef %37, ptr noundef nonnull @.str.26) #14
  call void @llvm.lifetime.end.p0(i64 24, ptr nonnull %5) #14
  br label %.thread43

39:                                               ; preds = %28
  call void @llvm.lifetime.end.p0(i64 24, ptr nonnull %5) #14
  %40 = icmp slt i32 %33, 0
  br i1 %40, label %41, label %45

41:                                               ; preds = %39
  %42 = load i64, ptr @H5E_PLIST_g, align 8, !tbaa !10
  %43 = load i64, ptr @H5E_CANTINIT_g, align 8, !tbaa !10
  %44 = call i32 (ptr, ptr, i32, i64, i64, ptr, ...) @H5E_printf_stack(ptr noundef nonnull @.str.7, ptr noundef nonnull @__func__.H5P__del_pclass_cb, i32 noundef 4929, i64 noundef %42, i64 noundef %43, ptr noundef nonnull @.str.97) #14
  br label %.thread43

45:                                               ; preds = %39, %12
  %.031 = phi ptr [ %18, %39 ], [ null, %12 ]
  %.1 = phi i32 [ %33, %39 ], [ 0, %12 ]
  %46 = call noalias ptr @H5MM_xstrdup(ptr noundef %1) #14
  %47 = icmp eq ptr %46, null
  br i1 %47, label %48, label %52

48:                                               ; preds = %45
  %49 = load i64, ptr @H5E_PLIST_g, align 8, !tbaa !10
  %50 = load i64, ptr @H5E_CANTALLOC_g, align 8, !tbaa !10
  %51 = call i32 (ptr, ptr, i32, i64, i64, ptr, ...) @H5E_printf_stack(ptr noundef nonnull @.str.7, ptr noundef nonnull @__func__.H5P__del_pclass_cb, i32 noundef 4934, i64 noundef %49, i64 noundef %50, ptr noundef nonnull @.str.20) #14
  br label %65

52:                                               ; preds = %45
  %53 = getelementptr inbounds nuw i8, ptr %0, i64 32
  %54 = load ptr, ptr %53, align 8, !tbaa !59
  %55 = call i32 @H5SL_insert(ptr noundef %54, ptr noundef nonnull %46, ptr noundef nonnull %46) #14
  %56 = icmp slt i32 %55, 0
  br i1 %56, label %57, label %61

57:                                               ; preds = %52
  %58 = load i64, ptr @H5E_PLIST_g, align 8, !tbaa !10
  %59 = load i64, ptr @H5E_CANTINSERT_g, align 8, !tbaa !10
  %60 = call i32 (ptr, ptr, i32, i64, i64, ptr, ...) @H5E_printf_stack(ptr noundef nonnull @.str.7, ptr noundef nonnull @__func__.H5P__del_pclass_cb, i32 noundef 4938, i64 noundef %58, i64 noundef %59, ptr noundef nonnull @.str.24) #14
  br label %65

61:                                               ; preds = %52
  %62 = getelementptr inbounds nuw i8, ptr %0, i64 16
  %63 = load i64, ptr %62, align 8, !tbaa !56
  %64 = add i64 %63, -1
  store i64 %64, ptr %62, align 8, !tbaa !56
  br label %65

65:                                               ; preds = %61, %57, %48
  %.2 = phi i32 [ -1, %48 ], [ -1, %57 ], [ %.1, %61 ]
  %.not39 = icmp eq ptr %.031, null
  br i1 %.not39, label %67, label %.thread43

.thread43:                                        ; preds = %.thread, %41, %65
  %.251 = phi i32 [ %.2, %65 ], [ -1, %41 ], [ -1, %.thread ]
  %.13250 = phi ptr [ %.031, %65 ], [ %18, %41 ], [ %18, %.thread ]
  %.03348 = phi ptr [ %46, %65 ], [ null, %41 ], [ null, %.thread ]
  %66 = call ptr @H5MM_xfree(ptr noundef nonnull %.13250) #14
  br label %67

67:                                               ; preds = %.thread43, %65
  %.252 = phi i32 [ %.251, %.thread43 ], [ %.2, %65 ]
  %.03349 = phi ptr [ %.03348, %.thread43 ], [ %46, %65 ]
  %68 = icmp slt i32 %.252, 0
  %69 = icmp ne ptr %.03349, null
  %or.cond = and i1 %68, %69
  br i1 %or.cond, label %70, label %72

70:                                               ; preds = %67
  %71 = call ptr @H5MM_xfree(ptr noundef nonnull %.03349) #14
  br label %72

72:                                               ; preds = %.thread58, %4, %70, %67
  %.034 = phi i32 [ -1, %70 ], [ %.252, %67 ], [ 0, %4 ], [ -1, %.thread58 ]
  ret i32 %.034
}